(dp0
I225
(dp1
I195
F0.11522468142186452
sI205
F0.10095829396679713
sI175
F0.13688009624381767
sI215
F0.1044
sI185
F0.133764832793959
sI218
F0.09666080843585237
sI220
F0.09809663250366032
sI222
F0.09742968644866101
ssI450
(dp2
I420
F0.1690031152647975
sI430
F0.14887726853275915
sI400
F0.20189765126769327
sI440
F0.15800899364242518
sI410
F0.18718982630272954
sI443
F0.14679327521793276
sI445
F0.15331985694293268
sI447
F0.15273731022849257
ssI100
(dp3
I97
F0.047162360374591
sI70
F0.05457805670738541
sI80
F0.05478211658177702
sI50
F0.058507599131527824
sI90
F0.04391353811149033
sI60
F0.057769151729649505
sI93
F0.04516496018202503
sI95
F0.046030309884641483
ssI325
(dp4
I320
F0.12855897733875654
sI322
F0.12681791739383363
sI295
F0.1520945847321559
sI305
F0.12947537629694578
sI275
F0.17769983925179014
sI315
F0.1276595744680851
sI285
F0.16709732988802756
sI318
F0.12406340057636887
ssI550
(dp5
I545
F0.16769694087811063
sI547
F0.16838543345149856
sI520
F0.1869234503965043
sI530
F0.17658197885434748
sI500
F0.2272294509679467
sI540
F0.15889967637540453
sI510
F0.19646586345381525
sI543
F0.16344916344916344
ssI200
(dp6
I160
F0.12089493654324218
sI193
F0.09466995201659967
sI195
F0.08594779857632481
sI197
F0.09370904325032765
sI170
F0.11509458923137982
sI180
F0.09092088197146563
sI150
F0.1354207436399217
sI190
F0.09440928270042194
ssI425
(dp7
I385
F0.17802567237163813
sI418
F0.14011159330440173
sI420
F0.14783412979805766
sI422
F0.141439205955335
sI395
F0.17272018706157444
sI405
F0.1478247549019608
sI375
F0.20657204566491824
sI415
F0.14835333948907356
ssI300
(dp8
I290
F0.12079292641186537
sI260
F0.14984928950767906
sI293
F0.11426930806775767
sI295
F0.11748053786270347
sI297
F0.1139421700543945
sI270
F0.1396583895507392
sI280
F0.1296875
sI250
F0.16773824832118875
ssI525
(dp9
I515
F0.15764100915956933
sI485
F0.19906832298136645
sI518
F0.16598101265822784
sI520
F0.16156299840510366
sI522
F0.15910563836681788
sI495
F0.18570973901973264
sI505
F0.1652643276710589
sI475
F0.22008649687650167
ssI175
(dp10
I165
F0.08023982650848323
sI135
F0.10725989412654399
sI168
F0.07701047847494004
sI170
F0.07786471479050984
sI172
F0.07935697882112784
sI145
F0.09157650695517774
sI155
F0.09256661991584852
sI125
F0.11738522192547374
ssI400
(dp11
I390
F0.14201541018280708
sI360
F0.17275494672754946
sI393
F0.14346569298645975
sI395
F0.14088565362450714
sI397
F0.1448476496708008
sI370
F0.16510856453558503
sI380
F0.14586783079933766
sI350
F0.18583535108958837
ssI275
(dp12
I225
F0.15893206597707576
sI265
F0.11368778280542986
sI235
F0.14694047453864298
sI268
F0.11186249647788109
sI270
F0.1064691910018164
sI272
F0.11179173047473201
sI245
F0.13973982375157365
sI255
F0.1184881087202718
ssI500
(dp13
I480
F0.16293375394321766
sI450
F0.21790434235368156
sI490
F0.15966921119592875
sI460
F0.18866739915240935
sI493
F0.15781945327399874
sI495
F0.16831527712356728
sI497
F0.15680100755667506
sI470
F0.17594796128827542
ssI150
(dp14
I130
F0.07629830174747723
sI100
F0.09910358565737051
sI140
F0.07086125589476297
sI110
F0.09192439862542956
sI143
F0.06665845243962543
sI145
F0.07115216577206342
sI147
F0.0675892746818238
sI120
F0.07761998041136141
ssI375
(dp15
I355
F0.1439542237614817
sI325
F0.19140271493212668
sI365
F0.13000903886712864
sI335
F0.16989279332936272
sI368
F0.13965966579794573
sI370
F0.1334033613445378
sI372
F0.1284307875894988
sI345
F0.15472263868065966
ssI600
(dp16
I580
F0.17493429697766097
sI550
F0.22254475084663763
sI590
F0.17847165160230075
sI560
F0.2126865671641791
sI593
F0.17392723119595366
sI595
F0.1675544794188862
sI597
F0.1696297504485402
sI570
F0.1888853196273691
ssI250
(dp17
I230
F0.11547878128400435
sI200
F0.14959239130434782
sI240
F0.1057146810571468
sI210
F0.13554175293305729
sI243
F0.1012467461296068
sI245
F0.10400763358778627
sI247
F0.10654154016008832
sI220
F0.12532352540525815
ssI475
(dp18
I455
F0.167336217552534
sI425
F0.21049344159900063
sI465
F0.16183422628427355
sI435
F0.18315822487062883
sI468
F0.16348730884439538
sI470
F0.1499295002349992
sI472
F0.14673223350253808
sI445
F0.17831735230436127
ssI125
(dp19
I105
F0.06075435664836477
sI75
F0.08437462810900868
sI115
F0.06313574184496668
sI85
F0.07561121049493143
sI118
F0.05866952278947995
sI120
F0.05911563017261764
sI122
F0.05668552172343242
sI95
F0.0713345302214243
ssI350
(dp20
I320
F0.15009631056452807
sI330
F0.1398642667453526
sI300
F0.1833603776368196
sI340
F0.13608156028368795
sI310
F0.169311377245509
sI343
F0.12625963248369887
sI345
F0.1296928327645051
sI347
F0.13154382322408423
ssI575
(dp21
I545
F0.19115272844688408
sI555
F0.17567567567567569
sI525
F0.23187238156622622
sI565
F0.16625716625716624
sI535
F0.20575797007156799
sI568
F0.1700856081408496
sI570
F0.16551837270341208
sI572
F0.16505316616410093
ss.