(dp0
S'150'
p1
(dp2
S'147'
p3
F0.0675892746818238
sS'145'
p4
F0.07115216577206342
sS'143'
p5
F0.06665845243962543
sS'140'
p6
F0.07086125589476297
sS'120'
p7
F0.07761998041136141
sS'130'
p8
F0.07629830174747723
sS'110'
p9
F0.09192439862542956
sS'100'
p10
F0.09910358565737051
ssS'200'
p11
(dp12
S'150'
p13
F0.1354207436399217
sS'195'
p14
F0.08594779857632481
sS'197'
p15
F0.09370904325032765
sS'190'
p16
F0.09440928270042194
sS'193'
p17
F0.09466995201659967
sS'180'
p18
F0.09092088197146563
sS'160'
p19
F0.12089493654324218
sS'170'
p20
F0.11509458923137982
ssS'250'
p21
(dp22
S'200'
p23
F0.14959239130434782
sS'210'
p24
F0.13554175293305729
sS'245'
p25
F0.10400763358778627
sS'247'
p26
F0.10654154016008832
sS'240'
p27
F0.1057146810571468
sS'243'
p28
F0.1012467461296068
sS'230'
p29
F0.11547878128400435
sS'220'
p30
F0.12532352540525815
ssS'600'
p31
(dp32
S'590'
p33
F0.17847165160230075
sS'593'
p34
F0.17392723119595366
sS'595'
p35
F0.1675544794188862
sS'580'
p36
F0.17493429697766097
sS'597'
p37
F0.1696297504485402
sS'560'
p38
F0.2126865671641791
sS'570'
p39
F0.1888853196273691
sS'550'
p40
F0.22254475084663763
ssS'350'
p41
(dp42
S'300'
p43
F0.1833603776368196
sS'310'
p44
F0.169311377245509
sS'330'
p45
F0.1398642667453526
sS'345'
p46
F0.1296928327645051
sS'320'
p47
F0.15009631056452807
sS'347'
p48
F0.13154382322408423
sS'340'
p49
F0.13608156028368795
sS'343'
p50
F0.12625963248369887
ssS'450'
p51
(dp52
S'443'
p53
F0.14679327521793276
sS'440'
p54
F0.15800899364242518
sS'447'
p55
F0.15273731022849257
sS'445'
p56
F0.15331985694293268
sS'410'
p57
F0.18718982630272954
sS'400'
p58
F0.20189765126769327
sS'420'
p59
F0.1690031152647975
sS'430'
p60
F0.14887726853275915
ssS'425'
p61
(dp62
S'375'
p63
F0.20657204566491824
sS'415'
p64
F0.14835333948907356
sS'405'
p65
F0.1478247549019608
sS'385'
p66
F0.17802567237163813
sS'395'
p67
F0.17272018706157444
sS'420'
p68
F0.14783412979805766
sS'422'
p69
F0.141439205955335
sS'418'
p70
F0.14011159330440173
ssS'175'
p71
(dp72
S'145'
p73
F0.09157650695517774
sS'155'
p74
F0.09256661991584852
sS'168'
p75
F0.07701047847494004
sS'125'
p76
F0.11738522192547374
sS'135'
p77
F0.10725989412654399
sS'165'
p78
F0.08023982650848323
sS'172'
p79
F0.07935697882112784
sS'170'
p80
F0.07786471479050984
ssS'400'
p81
(dp82
S'393'
p83
F0.14346569298645975
sS'380'
p84
F0.14586783079933766
sS'390'
p85
F0.14201541018280708
sS'397'
p86
F0.1448476496708008
sS'395'
p87
F0.14088565362450714
sS'350'
p88
F0.18583535108958837
sS'370'
p89
F0.16510856453558503
sS'360'
p90
F0.17275494672754946
ssS'300'
p91
(dp92
S'270'
p93
F0.1396583895507392
sS'260'
p94
F0.14984928950767906
sS'297'
p95
F0.1139421700543945
sS'280'
p96
F0.1296875
sS'250'
p97
F0.16773824832118875
sS'295'
p98
F0.11748053786270347
sS'293'
p99
F0.11426930806775767
sS'290'
p100
F0.12079292641186537
ssS'550'
p101
(dp102
S'545'
p103
F0.16769694087811063
sS'543'
p104
F0.16344916344916344
sS'540'
p105
F0.15889967637540453
sS'520'
p106
F0.1869234503965043
sS'547'
p107
F0.16838543345149856
sS'530'
p108
F0.17658197885434748
sS'510'
p109
F0.19646586345381525
sS'500'
p110
F0.2272294509679467
ssS'575'
p111
(dp112
S'568'
p113
F0.1700856081408496
sS'555'
p114
F0.17567567567567569
sS'572'
p115
F0.16505316616410093
sS'570'
p116
F0.16551837270341208
sS'565'
p117
F0.16625716625716624
sS'525'
p118
F0.23187238156622622
sS'535'
p119
F0.20575797007156799
sS'545'
p120
F0.19115272844688408
ssS'525'
p121
(dp122
S'518'
p123
F0.16598101265822784
sS'520'
p124
F0.16156299840510366
sS'522'
p125
F0.15910563836681788
sS'475'
p126
F0.22008649687650167
sS'495'
p127
F0.18570973901973264
sS'485'
p128
F0.19906832298136645
sS'505'
p129
F0.1652643276710589
sS'515'
p130
F0.15764100915956933
ssS'125'
p131
(dp132
S'120'
p133
F0.05911563017261764
sS'122'
p134
F0.05668552172343242
sS'115'
p135
F0.06313574184496668
sS'75'
p136
F0.08437462810900868
sS'85'
p137
F0.07561121049493143
sS'95'
p138
F0.0713345302214243
sS'118'
p139
F0.05866952278947995
sS'105'
p140
F0.06075435664836477
ssS'325'
p141
(dp142
S'318'
p143
F0.12406340057636887
sS'305'
p144
F0.12947537629694578
sS'315'
p145
F0.1276595744680851
sS'322'
p146
F0.12681791739383363
sS'320'
p147
F0.12855897733875654
sS'275'
p148
F0.17769983925179014
sS'295'
p149
F0.1520945847321559
sS'285'
p150
F0.16709732988802756
ssS'100'
p151
(dp152
S'50'
p153
F0.058507599131527824
sS'60'
p154
F0.057769151729649505
sS'70'
p155
F0.05457805670738541
sS'90'
p156
F0.04391353811149033
sS'80'
p157
F0.05478211658177702
sS'95'
p158
F0.046030309884641483
sS'93'
p159
F0.04516496018202503
sS'97'
p160
F0.047162360374591
ssS'475'
p161
(dp162
S'468'
p163
F0.16348730884439538
sS'465'
p164
F0.16183422628427355
sS'455'
p165
F0.167336217552534
sS'445'
p166
F0.17831735230436127
sS'472'
p167
F0.14673223350253808
sS'470'
p168
F0.1499295002349992
sS'435'
p169
F0.18315822487062883
sS'425'
p170
F0.21049344159900063
ssS'375'
p171
(dp172
S'365'
p173
F0.13000903886712864
sS'335'
p174
F0.16989279332936272
sS'345'
p175
F0.15472263868065966
sS'355'
p176
F0.1439542237614817
sS'368'
p177
F0.13965966579794573
sS'325'
p178
F0.19140271493212668
sS'370'
p179
F0.1334033613445378
sS'372'
p180
F0.1284307875894988
ssS'225'
p181
(dp182
S'215'
p183
F0.1044
sS'205'
p184
F0.10095829396679713
sS'195'
p185
F0.11522468142186452
sS'218'
p186
F0.09666080843585237
sS'185'
p187
F0.133764832793959
sS'175'
p188
F0.13688009624381767
sS'222'
p189
F0.09742968644866101
sS'220'
p190
F0.09809663250366032
ssS'500'
p191
(dp192
S'480'
p193
F0.16293375394321766
sS'450'
p194
F0.21790434235368156
sS'460'
p195
F0.18866739915240935
sS'470'
p196
F0.17594796128827542
sS'495'
p197
F0.16831527712356728
sS'497'
p198
F0.15680100755667506
sS'490'
p199
F0.15966921119592875
sS'493'
p200
F0.15781945327399874
ssS'275'
p201
(dp202
S'245'
p203
F0.13973982375157365
sS'270'
p204
F0.1064691910018164
sS'272'
p205
F0.11179173047473201
sS'265'
p206
F0.11368778280542986
sS'235'
p207
F0.14694047453864298
sS'225'
p208
F0.15893206597707576
sS'268'
p209
F0.11186249647788109
sS'255'
p210
F0.1184881087202718
ss.